; ModuleID = 'source-C-CXX/44/2359.c'
source_filename = "source-C-CXX/44/2359.c"
target datalayout = "e-m:e-p270:32:32-p271:32:32-p272:64:64-i64:64-f80:128-n8:16:32:64-S128"
target triple = "x86_64-pc-linux-gnu"

@.str = private unnamed_addr constant [5 x i8] c"%s%s\00", align 1
@.str.1 = private unnamed_addr constant [4 x i8] c"%d\0A\00", align 1

; Function Attrs: nofree nounwind readonly sspstrong uwtable
define dso_local i32 @dingwei(i8* nocapture readonly %0, i8* nocapture readonly %1) local_unnamed_addr #0 {
  %3 = tail call i64 @strlen(i8* noundef nonnull dereferenceable(1) %0) #6
  %4 = trunc i64 %3 to i32
  %5 = icmp sgt i32 %4, 0
  br i1 %5, label %6, label %25

6:                                                ; preds = %2
  %7 = and i64 %3, 4294967295
  br label %8

8:                                                ; preds = %6, %18
  %9 = phi i64 [ 0, %6 ], [ %21, %18 ]
  br label %10

10:                                               ; preds = %8, %22
  %11 = phi i64 [ 0, %8 ], [ %23, %22 ]
  %12 = getelementptr inbounds i8, i8* %0, i64 %11
  %13 = load i8, i8* %12, align 1, !tbaa !5
  %14 = add nuw nsw i64 %11, %9
  %15 = getelementptr inbounds i8, i8* %1, i64 %14
  %16 = load i8, i8* %15, align 1, !tbaa !5
  %17 = icmp eq i8 %13, %16
  br i1 %17, label %22, label %18

18:                                               ; preds = %10
  %19 = trunc i64 %11 to i32
  %20 = icmp eq i32 %19, %4
  %21 = add nuw i64 %9, 1
  br i1 %20, label %28, label %8

22:                                               ; preds = %10
  %23 = add nuw nsw i64 %11, 1
  %24 = icmp eq i64 %23, %7
  br i1 %24, label %28, label %10, !llvm.loop !8

25:                                               ; preds = %2
  %26 = icmp eq i32 %4, 0
  br i1 %26, label %30, label %27

27:                                               ; preds = %25, %27
  br label %27

28:                                               ; preds = %18, %22
  %29 = trunc i64 %9 to i32
  br label %30

30:                                               ; preds = %25, %28
  %31 = phi i32 [ %29, %28 ], [ 0, %25 ]
  ret i32 %31
}

; Function Attrs: argmemonly mustprogress nofree nosync nounwind willreturn
declare void @llvm.lifetime.start.p0i8(i64 immarg, i8* nocapture) #1

; Function Attrs: argmemonly mustprogress nofree nounwind readonly willreturn
declare i64 @strlen(i8* nocapture) local_unnamed_addr #2

; Function Attrs: argmemonly mustprogress nofree nosync nounwind willreturn
declare void @llvm.lifetime.end.p0i8(i64 immarg, i8* nocapture) #1

; Function Attrs: nofree nounwind sspstrong uwtable
define dso_local i32 @main() local_unnamed_addr #3 {
  %1 = alloca [51 x i8], align 16
  %2 = alloca [51 x i8], align 16
  %3 = getelementptr inbounds [51 x i8], [51 x i8]* %1, i64 0, i64 0
  call void @llvm.lifetime.start.p0i8(i64 51, i8* nonnull %3) #7
  call void @llvm.memset.p0i8.i64(i8* noundef nonnull align 16 dereferenceable(51) %3, i8 0, i64 51, i1 false)
  %4 = getelementptr inbounds [51 x i8], [51 x i8]* %2, i64 0, i64 0
  call void @llvm.lifetime.start.p0i8(i64 51, i8* nonnull %4) #7
  call void @llvm.memset.p0i8.i64(i8* noundef nonnull align 16 dereferenceable(51) %4, i8 0, i64 51, i1 false)
  %5 = call i32 (i8*, ...) @__isoc99_scanf(i8* getelementptr inbounds ([5 x i8], [5 x i8]* @.str, i64 0, i64 0), i8* nonnull %3, i8* nonnull %4)
  %6 = call i64 @strlen(i8* noundef nonnull dereferenceable(1) %3) #6
  %7 = trunc i64 %6 to i32
  %8 = icmp sgt i32 %7, 0
  br i1 %8, label %9, label %28

9:                                                ; preds = %0
  %10 = and i64 %6, 4294967295
  br label %11

11:                                               ; preds = %21, %9
  %12 = phi i64 [ 0, %9 ], [ %24, %21 ]
  br label %13

13:                                               ; preds = %25, %11
  %14 = phi i64 [ 0, %11 ], [ %26, %25 ]
  %15 = getelementptr inbounds [51 x i8], [51 x i8]* %1, i64 0, i64 %14
  %16 = load i8, i8* %15, align 1, !tbaa !5
  %17 = add nuw nsw i64 %14, %12
  %18 = getelementptr inbounds [51 x i8], [51 x i8]* %2, i64 0, i64 %17
  %19 = load i8, i8* %18, align 1, !tbaa !5
  %20 = icmp eq i8 %16, %19
  br i1 %20, label %25, label %21

21:                                               ; preds = %13
  %22 = trunc i64 %14 to i32
  %23 = icmp eq i32 %22, %7
  %24 = add nuw i64 %12, 1
  br i1 %23, label %31, label %11

25:                                               ; preds = %13
  %26 = add nuw nsw i64 %14, 1
  %27 = icmp eq i64 %26, %10
  br i1 %27, label %31, label %13, !llvm.loop !8

28:                                               ; preds = %0
  %29 = icmp eq i32 %7, 0
  br i1 %29, label %33, label %30

30:                                               ; preds = %28, %30
  br label %30

31:                                               ; preds = %21, %25
  %32 = trunc i64 %12 to i32
  br label %33

33:                                               ; preds = %28, %31
  %34 = phi i32 [ %32, %31 ], [ 0, %28 ]
  %35 = call i32 (i8*, ...) @printf(i8* nonnull dereferenceable(1) getelementptr inbounds ([4 x i8], [4 x i8]* @.str.1, i64 0, i64 0), i32 %34)
  call void @llvm.lifetime.end.p0i8(i64 51, i8* nonnull %4) #7
  call void @llvm.lifetime.end.p0i8(i64 51, i8* nonnull %3) #7
  ret i32 0
}

; Function Attrs: argmemonly mustprogress nofree nounwind willreturn writeonly
declare void @llvm.memset.p0i8.i64(i8* nocapture writeonly, i8, i64, i1 immarg) #4

; Function Attrs: nofree nounwind
declare noundef i32 @__isoc99_scanf(i8* nocapture noundef readonly, ...) local_unnamed_addr #5

; Function Attrs: nofree nounwind
declare noundef i32 @printf(i8* nocapture noundef readonly, ...) local_unnamed_addr #5


!llvm.module.flags = !{!0, !1, !2, !3}
!llvm.ident = !{!4}

!0 = !{i32 1, !"wchar_size", i32 4}
!1 = !{i32 7, !"PIC Level", i32 2}
!2 = !{i32 7, !"PIE Level", i32 2}
!3 = !{i32 7, !"uwtable", i32 1}
!4 = !{!"clang version 13.0.0"}
!5 = !{!6, !6, i64 0}
!6 = !{!"omnipotent char", !7, i64 0}
!7 = !{!"Simple C/C++ TBAA"}
!8 = distinct !{!8, !9}
!9 = !{!"llvm.loop.mustprogress"}
